(dp0
V098
p1
Vimidoyl halide
p2
sV099
p3
Vthiocarboxylic acid deriv.
p4
sV126
p5
Vcarbamic acid
p6
sV090
p7
Vnitrile
p8
sV091
p9
Vacyl halide
p10
sV092
p11
Vacyl fluoride
p12
sV093
p13
Vacyl chloride
p14
sV094
p15
Vacyl bromide
p16
sV095
p17
Vacyl iodide
p18
sV096
p19
Vacyl cyanide
p20
sV097
p21
Vimido ester
p22
sV010
p23
Vhydrazone
p24
sV011
p25
Vsemicarbazone
p26
sV012
p27
Vthiosemicarbazone
p28
sV013
p29
Voxime
p30
sV014
p31
Voxime ether
p32
sV015
p33
Vketene
p34
sV016
p35
Vketene acetal derivative
p36
sV017
p37
Vcarbonyl hydrate
p38
sV018
p39
Vhemiacetal
p40
sV019
p41
Vacetal
p42
sV127
p43
Vcarbamic acid ester
p44
sV138
p45
Vsemicarbazide
p46
sV198
p47
Vboronic acid ester
p48
sV025
p49
Venol
p50
sV024
p51
Venamine
p52
sV027
p53
Vhydroxy compound
p54
sV026
p55
Venolether
p56
sV021
p57
Vaminal
p58
sV020
p59
Vhemiaminal
p60
sV023
p61
Vthioacetal
p62
sV022
p63
Vthiohemiaminal
p64
sV128
p65
Vcarbamic acid halide
p66
sV129
p67
Vthiocarbamic acid deriv.
p68
sV029
p69
Vprim. alcohol
p70
sV028
p71
Valcohol
p72
sV133
p73
Vurea
p74
sV132
p75
Vthiocarbamic acid halide
p76
sV131
p77
Vthiocarbamic acid ester
p78
sV130
p79
Vthiocarbamic acid
p80
sV137
p81
Vguanidine
p82
sV136
p83
Visothiourea
p84
sV201
p85
Varomatic compound
p86
sV199
p87
Valkene
p88
sV135
p89
Vthiourea
p90
sV200
p91
Valkyne
p92
sV195
p93
Vphosphinoxide
p94
sV194
p95
Vphosphine
p96
sV197
p97
Vboronic acid
p98
sV134
p99
Visourea
p100
sV191
p101
Vphosphonic acid deriv.
p102
sV144
p103
Vcyanate
p104
sV193
p105
Vphosphonic acid ester
p106
sV192
p107
Vphosphonic acid
p108
sV115
p109
Vcarboxylic acid subst. imide
p110
sV114
p111
Vcarboxylic acid unsubst. imide
p112
sV038
p113
Vdialkylether
p114
sV039
p115
Valkylarylether
p116
sV111
p117
Vcarboxylic acid amide acetal
p118
sV110
p119
Vcarboxylic acid orthoester
p120
sV113
p121
Vcarboxylic acid imide
p122
sV112
p123
Vcarboxylic acid anhydride
p124
sV032
p125
V1,2-diol
p126
sV033
p127
V1,2-aminoalcohol
p128
sV030
p129
Vsec. alcohol
p130
sV031
p131
Vtert. alcohol
p132
sV036
p133
Venediol
p134
sV037
p135
Vether
p136
sV034
p137
Vphenol
p138
sV035
p139
V1,2-diphenol
p140
sV174
p141
Vsulfenic acid
p142
sV173
p143
Vsulfenic acid deriv.
p144
sV172
p145
Vsulfinic acid amide
p146
sV171
p147
Vsulfinic acid halide
p148
sV170
p149
Vsulfinic acid ester
p150
sV178
p151
Vthiol
p152
sV108
p153
Viminohetarene
p154
sV109
p155
Vorthocarboxylic acid deriv.
p156
sV196
p157
Vboronic acid deriv.
p158
sV148
p159
Vcarbodiimide
p160
sV049
p161
Vprim. aliphat. amine
p162
sV048
p163
Vprim. amine
p164
sV047
p165
Vamine
p166
sV046
p167
Vhydroxylamine
p168
sV045
p169
Vhydrazine derivative
p170
sV044
p171
Vhydroperoxide
p172
sV043
p173
Vperoxide
p174
sV042
p175
Vdisulfide
p176
sV041
p177
Vthioether
p178
sV040
p179
Vdiarylether
p180
sV139
p181
Vthiosemicarbazide
p182
sV177
p183
Vsulfenic acid amide
p184
sV151
p185
Vnitrite
p186
sV150
p187
Vnitro compound
p188
sV176
p189
Vsulfenic acid halide
p190
sV153
p191
Vsulfuric acid deriv.
p192
sV102
p193
Vthiolactone
p194
sV152
p195
Vnitrate
p196
sV058
p197
Vtert. arom_amine
p198
sV059
p199
Vquaternary ammonium salt
p200
sV179
p201
Valkylthiol
p202
sV103
p203
Vthiocarboxylic acid amide
p204
sV054
p205
Vsec. aromat. amine
p206
sV055
p207
Vtert. amine
p208
sV056
p209
Vtert. aliphat. amine
p210
sV057
p211
Vtert. mixed amine
p212
sV050
p213
Vprim. aromat. amine
p214
sV051
p215
Vsec. amine
p216
sV052
p217
Vsec. aliphat. amine
p218
sV053
p219
Vsec. mixed amine (aryl alkyl)
p220
sV203
p221
Valpha-aminoacid
p222
sV101
p223
Vthiocarboxylic acid ester
p224
sV157
p225
Vsulfuric acid amide ester
p226
sV106
p227
Voxohetarene
p228
sV175
p229
Vsulfenic acid ester
p230
sV156
p231
Vsulfuric acid diester
p232
sV145
p233
Visocyanate
p234
sV107
p235
Vthioxohetarene
p236
sV182
p237
Vphosphoric acid
p238
sV183
p239
Vphosphoric acid ester
p240
sV180
p241
Varylthiol
p242
sV181
p243
Vphosphoric acid deriv.
p244
sV186
p245
Vthiophosphoric acid deriv.
p246
sV104
p247
Vthiolactam
p248
sV184
p249
Vphosphoric acid halide
p250
sV185
p251
Vphosphoric acid amide
p252
sV188
p253
Vthiophosphoric acid ester
p254
sV105
p255
Vimidothioester
p256
sV202
p257
Vheterocyclic compound
p258
sV187
p259
Vthiophosphoric acid
p260
sV061
p261
Vhalogen deriv.
p262
sV060
p263
VN-oxide
p264
sV063
p265
Valkyl fluoride
p266
sV062
p267
Valkyl halide
p268
sV065
p269
Valkyl bromide
p270
sV064
p271
Valkyl chloride
p272
sV067
p273
Varyl halide
p274
sV066
p275
Valkyl iodide
p276
sV069
p277
Varyl chloride
p278
sV068
p279
Varyl fluoride
p280
sV190
p281
Vthiophosphoric acid amide
p282
sV168
p283
Vsulfinic acid deriv.
p284
sV169
p285
Vsulfinic acid
p286
sV164
p287
Vsulfonamide
p288
sV165
p289
Vsulfonyl halide
p290
sV166
p291
Vsulfone
p292
sV167
p293
Vsulfoxide
p294
sV160
p295
Vsulfuryl halide
p296
sV161
p297
Vsulfonic acid deriv.
p298
sV162
p299
Vsulfonic acid
p300
sV163
p301
Vsulfonic acid ester
p302
sV189
p303
Vthiophosphoric acid halide
p304
sV117
p305
Vcarbonic acid deriv.
p306
sV116
p307
VCO2 deriv. (general)
p308
sV204
p309
Valpha-hydroxyacid
p310
sV076
p311
Vcarboxylic acid
p312
sV077
p313
Vcarboxylic acid salt
p314
sV074
p315
Vorganomagnesium compound
p316
sV075
p317
Vcarboxylic acid deriv.
p318
sV072
p319
Vorganometallic compound
p320
sV073
p321
Vorganolithium compound
p322
sV070
p323
Varyl bromide
p324
sV071
p325
Varyl iodide
p326
sV159
p327
Vsulfuric acid diamide
p328
sV158
p329
Vsulfuric acid amide
p330
sV078
p331
Vcarboxylic acid ester
p332
sV079
p333
Vlactone
p334
sV100
p335
Vthiocarboxylic acid
p336
sV149
p337
Vnitroso compound
p338
sV119
p339
Vcarbonic acid diester
p340
sV118
p341
Vcarbonic acid monoester
p342
sV155
p343
Vsulfuric acid monoester
p344
sV146
p345
Vthiocyanate
p346
sV147
p347
Visothiocyanate
p348
sV089
p349
Vcarboxylic acid amidrazone
p350
sV088
p351
Vcarboxylic acid amidine
p352
sV142
p353
Vdiazonium salt
p354
sV143
p355
Visonitrile
p356
sV140
p357
Vazide
p358
sV141
p359
Vazo compound
p360
sV083
p361
Vcarboxylic acid tert. amide
p362
sV082
p363
Vcarboxylic acid sec. amide
p364
sV081
p365
Vcarboxylic acid prim. amide
p366
sV080
p367
Vcarboxylic acid amide
p368
sV087
p369
Vhydroxamic acid
p370
sV086
p371
Vcarboxylic acid azide
p372
sV085
p373
Vcarboxylic acid hydrazide
p374
sV084
p375
Vlactam
p376
sV003
p377
Vcarbonyl compound
p378
sV002
p379
Vanion
p380
sV001
p381
Vcation
p382
sV007
p383
Vthioaldehyde
p384
sV006
p385
Vthiocarbonyl compound
p386
sV005
p387
Vketone
p388
sV004
p389
Valdehyde
p390
sV154
p391
Vsulfuric acid
p392
sV009
p393
Vimine
p394
sV008
p395
Vthioketone
p396
sV120
p397
Vcarbonic acid ester halide
p398
sV121
p399
Vthiocarbonic acid deriv.
p400
sV122
p401
Vthiocarbonic acid monoester
p402
sV123
p403
Vthiocarbonic acid diester
p404
sV124
p405
Vthiocarbonic acid ester halide
p406
sV125
p407
Vcarbamic acid deriv
p408
s.