(dp0
Venamine
p1
V024
p2
sVtert. mixed amine
p3
V057
p4
sVsulfuric acid deriv.
p5
V153
p6
sVsulfuric acid monoester
p7
V155
p8
sVphosphinoxide
p9
V195
p10
sVsulfenic acid ester
p11
V175
p12
sVcarboxylic acid unsubst. imide
p13
V114
p14
sVthioxohetarene
p15
V107
p16
sV1,2-diphenol
p17
V035
p18
sVhydroxylamine
p19
V046
p20
sValpha-aminoacid
p21
V203
p22
sVlactam
p23
V084
p24
sVcarboxylic acid prim. amide
p25
V081
p26
sVimidoyl halide
p27
V098
p28
sVhemiacetal
p29
V018
p30
sVthiocarbonyl compound
p31
V006
p32
sVcarboxylic acid amidine
p33
V088
p34
sVprim. amine
p35
V048
p36
sVacyl iodide
p37
V095
p38
sVcarbonic acid deriv.
p39
V117
p40
sValkylthiol
p41
V179
p42
sVsulfonic acid ester
p43
V163
p44
sVnitro compound
p45
V150
p46
sVaromatic compound
p47
V201
p48
sVsec. aromat. amine
p49
V054
p50
sVorganometallic compound
p51
V072
p52
sVphosphoric acid halide
p53
V184
p54
sVacyl chloride
p55
V093
p56
sVthiol
p57
V178
p58
sVdiarylether
p59
V040
p60
sVacyl fluoride
p61
V092
p62
sValkene
p63
V199
p64
sVurea
p65
V133
p66
sVhemiaminal
p67
V020
p68
sVthiophosphoric acid
p69
V187
p70
sVcarbonic acid monoester
p71
V118
p72
sVN-oxide
p73
V060
p74
sVorganolithium compound
p75
V073
p76
sVprim. alcohol
p77
V029
p78
sVacyl halide
p79
V091
p80
sVtert. alcohol
p81
V031
p82
sVaminal
p83
V021
p84
sVcarboxylic acid ester
p85
V078
p86
sVthiocarbonic acid deriv.
p87
V121
p88
sVguanidine
p89
V137
p90
sValkyl iodide
p91
V066
p92
sVcarboxylic acid tert. amide
p93
V083
p94
sVcarbamic acid
p95
V126
p96
sVanion
p97
V002
p98
sVsulfuric acid amide ester
p99
V157
p100
sVcarbonic acid ester halide
p101
V120
p102
sVaryl chloride
p103
V069
p104
sVenol
p105
V025
p106
sVphosphonic acid deriv.
p107
V191
p108
sVtert. amine
p109
V055
p110
sVthiophosphoric acid amide
p111
V190
p112
sVthiocarboxylic acid deriv.
p113
V099
p114
sVphosphoric acid deriv.
p115
V181
p116
sVthiocarbonic acid ester halide
p117
V124
p118
sVprim. aromat. amine
p119
V050
p120
sVthiophosphoric acid deriv.
p121
V186
p122
sVsulfonic acid deriv.
p123
V161
p124
sVoxohetarene
p125
V106
p126
sVthiosemicarbazone
p127
V012
p128
sVhydrazone
p129
V010
p130
sVtert. arom_amine
p131
V058
p132
sVboronic acid deriv.
p133
V196
p134
sVphosphoric acid
p135
V182
p136
sValkyl chloride
p137
V064
p138
sVcarbamic acid deriv
p139
V125
p140
sVsulfinic acid
p141
V169
p142
sVnitrite
p143
V151
p144
sVketene
p145
V015
p146
sVaryl halide
p147
V067
p148
sVcarboxylic acid amide acetal
p149
V111
p150
sVthiocarboxylic acid
p151
V100
p152
sVcarboxylic acid
p153
V076
p154
sVcarboxylic acid amidrazone
p155
V089
p156
sVcarboxylic acid deriv.
p157
V075
p158
sVperoxide
p159
V043
p160
sVsec. mixed amine (aryl alkyl)
p161
V053
p162
sValcohol
p163
V028
p164
sVazide
p165
V140
p166
sVCO2 deriv. (general)
p167
V116
p168
sValkylarylether
p169
V039
p170
sVsec. alcohol
p171
V030
p172
sVnitrate
p173
V152
p174
sVphosphine
p175
V194
p176
sVlactone
p177
V079
p178
sVcarbodiimide
p179
V148
p180
sVsulfuric acid diamide
p181
V159
p182
sVthiocarbamic acid ester
p183
V131
p184
sVisothiocyanate
p185
V147
p186
sValkyl fluoride
p187
V063
p188
sVhydroxy compound
p189
V027
p190
sVprim. aliphat. amine
p191
V049
p192
sVthiocarboxylic acid amide
p193
V103
p194
sVthiocarbonic acid monoester
p195
V122
p196
sVsulfinic acid ester
p197
V170
p198
sVcarbamic acid ester
p199
V127
p200
sVcyanate
p201
V144
p202
sVenediol
p203
V036
p204
sVcarboxylic acid sec. amide
p205
V082
p206
sVthiocarboxylic acid ester
p207
V101
p208
sVthiolactone
p209
V102
p210
sVsec. amine
p211
V051
p212
sValkyne
p213
V200
p214
sViminohetarene
p215
V108
p216
sVquaternary ammonium salt
p217
V059
p218
sVsulfonyl halide
p219
V165
p220
sVsulfenic acid deriv.
p221
V173
p222
sVthiocarbonic acid diester
p223
V123
p224
sVoxime ether
p225
V014
p226
sV1,2-aminoalcohol
p227
V033
p228
sVthiourea
p229
V135
p230
sVacyl bromide
p231
V094
p232
sV1,2-diol
p233
V032
p234
sVisonitrile
p235
V143
p236
sVcarboxylic acid subst. imide
p237
V115
p238
sVarylthiol
p239
V180
p240
sVthiocarbamic acid
p241
V130
p242
sVoxime
p243
V013
p244
sVthioketone
p245
V008
p246
sVisourea
p247
V134
p248
sVphosphonic acid ester
p249
V193
p250
sVaryl fluoride
p251
V068
p252
sVamine
p253
V047
p254
sVimido ester
p255
V097
p256
sVsemicarbazide
p257
V138
p258
sVether
p259
V037
p260
sVdialkylether
p261
V038
p262
sVsulfenic acid halide
p263
V176
p264
sVsulfuric acid diester
p265
V156
p266
sVaryl iodide
p267
V071
p268
sVsulfonamide
p269
V164
p270
sVimine
p271
V009
p272
sValkyl halide
p273
V062
p274
sVacyl cyanide
p275
V096
p276
sVsulfone
p277
V166
p278
sVhalogen deriv.
p279
V061
p280
sVorganomagnesium compound
p281
V074
p282
sVsulfuryl halide
p283
V160
p284
sVsulfinic acid deriv.
p285
V168
p286
sVboronic acid
p287
V197
p288
sVdisulfide
p289
V042
p290
sVthiocarbamic acid deriv.
p291
V129
p292
sVsulfenic acid
p293
V174
p294
sVazo compound
p295
V141
p296
sVnitrile
p297
V090
p298
sVhydroxamic acid
p299
V087
p300
sVphosphoric acid ester
p301
V183
p302
sVthiophosphoric acid ester
p303
V188
p304
sVimidothioester
p305
V105
p306
sValdehyde
p307
V004
p308
sVcarboxylic acid salt
p309
V077
p310
sVcarbonyl hydrate
p311
V017
p312
sVcarboxylic acid imide
p313
V113
p314
sVorthocarboxylic acid deriv.
p315
V109
p316
sVketone
p317
V005
p318
sVsulfuric acid
p319
V154
p320
sVthioaldehyde
p321
V007
p322
sVsulfonic acid
p323
V162
p324
sValpha-hydroxyacid
p325
V204
p326
sVdiazonium salt
p327
V142
p328
sVcarboxylic acid anhydride
p329
V112
p330
sVsec. aliphat. amine
p331
V052
p332
sVphosphoric acid amide
p333
V185
p334
sVcation
p335
V001
p336
sVisothiourea
p337
V136
p338
sVthiosemicarbazide
p339
V139
p340
sVcarbonyl compound
p341
V003
p342
sVcarboxylic acid hydrazide
p343
V085
p344
sVsulfinic acid amide
p345
V172
p346
sVsemicarbazone
p347
V011
p348
sVsulfenic acid amide
p349
V177
p350
sVhydrazine derivative
p351
V045
p352
sVthiohemiaminal
p353
V022
p354
sVboronic acid ester
p355
V198
p356
sVcarboxylic acid azide
p357
V086
p358
sVnitroso compound
p359
V149
p360
sVacetal
p361
V019
p362
sVsulfoxide
p363
V167
p364
sVhydroperoxide
p365
V044
p366
sVcarbonic acid diester
p367
V119
p368
sVthioacetal
p369
V023
p370
sVphosphonic acid
p371
V192
p372
sVenolether
p373
V026
p374
sVheterocyclic compound
p375
V202
p376
sVisocyanate
p377
V145
p378
sVaryl bromide
p379
V070
p380
sVphenol
p381
V034
p382
sVcarboxylic acid orthoester
p383
V110
p384
sVsulfinic acid halide
p385
V171
p386
sVthioether
p387
V041
p388
sVthiolactam
p389
V104
p390
sVcarbamic acid halide
p391
V128
p392
sVthiocyanate
p393
V146
p394
sVthiocarbamic acid halide
p395
V132
p396
sVthiophosphoric acid halide
p397
V189
p398
sVtert. aliphat. amine
p399
V056
p400
sValkyl bromide
p401
V065
p402
sVketene acetal derivative
p403
V016
p404
sVcarboxylic acid amide
p405
V080
p406
sVsulfuric acid amide
p407
V158
p408
s.