(lp0
S''
p1
aVPrim. amine
p2
aVPrim. aliphat. amine
p3
aVSulfonamide
p4
aVSec. alcohol
p5
aVSulfone
p6
aVDisulfide
p7
aVThiol
p8
aVThioaldehyde
p9
aVIsothiocyanate
p10
aVAlkyl fluoride
p11
aVCarbonic acid deriv.
p12
aVAlkylarylether
p13
aVHeterocyclic compound
p14
aVGuanidine
p15
aVThiourea
p16
aVPhosphoric acid ester
p17
aVThioxohetarene
p18
aVSulfuric acid monoester
p19
aVAnion
p20
aVAzo compound
p21
aVCarbamic acid ester
p22
aVN-oxide
p23
aVAlkyne
p24
aVImine
p25
aVSulfuric acid
p26
aVSulfuric acid amide
p27
aVAlpha-hydroxyacid
p28
aVSulfuric acid deriv.
p29
aVNitro compound
p30
aVCarboxylic acid unsubst. imide
p31
aVCarboxylic acid hydrazide
p32
aVHydrazone
p33
aVCarboxylic acid amidine
p34
aVDialkylether
p35
aVCyanate
p36
aVSulfonic acid
p37
aVPhenol
p38
aVHalogen deriv.
p39
aVThioketone
p40
aVNitroso compound
p41
aVSulfoxide
p42
aVHydroperoxide
p43
aVThiocarbamic acid ester
p44
aVHydroxy compound
p45
aVThiolactam
p46
aVEnolether
p47
aVCo2 deriv. (general)
p48
aVArylthiol
p49
aVHemiacetal
p50
aVEnediol
p51
aVThiocarboxylic acid ester
p52
aVCarboxylic acid tert. amide
p53
aVEnol
p54
aVTert. aliphat. amine
p55
aVQuaternary ammonium salt
p56
aVAlkyl bromide
p57
aVCarboxylic acid imide
p58
aVThiophosphoric acid amide
p59
aVSulfenic acid deriv.
p60
aVThiocarboxylic acid deriv.
p61
aVThiocyanate
p62
aVOrthocarboxylic acid deriv.
p63
aVSulfonic acid deriv.
p64
aVIminohetarene
p65
aVDiarylether
p66
aV1,2-diphenol
p67
aVOxime
p68
aVCation
p69
aVCarboxylic acid prim. amide
p70
aVPhosphoric acid
p71
aVPrim. aromat. amine
p72
aVThiocarbonyl compound
p73
aV1,2-aminoalcohol
p74
aVEther
p75
aVSec. mixed amine (aryl alkyl)
p76
aV1,2-diol
p77
aVSec. aromat. amine
p78
aVTert. mixed amine
p79
aVHydrazine derivative
p80
aVThiohemiaminal
p81
aVAldehyde
p82
aVCarboxylic acid ester
p83
aVAcetal
p84
aVAlkylthiol
p85
aVThiophosphoric acid deriv.
p86
aVThioacetal
p87
aVThiocarbamic acid deriv.
p88
aVPrim. alcohol
p89
aVTert. alcohol
p90
aVAryl bromide
p91
aVNitrile
p92
aVCarboxylic acid sec. amide
p93
aVTert. amine
p94
aVCarboxylic acid amide
p95
aVOxohetarene
p96
aVCarboxylic acid anhydride
p97
aVPhosphoric acid amide
p98
aVCarbamic acid deriv
p99
aVImidoyl halide
p100
aVCarboxylic acid
p101
aVCarboxylic acid amidrazone
p102
aVAlcohol
p103
aVSulfonic acid ester
p104
aVAromatic compound
p105
aVAlpha-aminoacid
p106
aVHydroxamic acid
p107
aVLactone
p108
aVSulfinic acid deriv.
p109
aVSec. aliphat. amine
p110
aVAlkene
p111
aVUrea
p112
aVHemiaminal
p113
aVCarboxylic acid deriv.
p114
aVThiocarboxylic acid amide
p115
aVSulfinic acid ester
p116
aVAminal
p117
aVLactam
p118
aVThiolactone
p119
aVAmine
p120
aVThiophosphoric acid ester
p121
aVThioether
p122
aVAryl chloride
p123
aVCarboxylic acid salt
p124
aVCarbonyl hydrate
p125
aVCarbonyl compound
p126
aVSec. amine
p127
aVPeroxide
p128
aVKetone
p129
aVKetene acetal derivative
p130
aVPhosphoric acid deriv.
p131
aVEnamine
p132
aVCarboxylic acid subst. imide
p133
aVThiocarbamic acid
p134
aVAlkyl chloride
p135
aVHydroxylamine
p136
aVAryl fluoride
p137
aVSulfonyl halide
p138
a.